target datalayout = "e-m:e-p270:32:32-p271:32:32-p272:64:64-i64:64-i128:128-f80:128-n8:16:32:64-S128"
target triple = "x86_64-pc-linux-gnu"

%struct._object = type { %union.anon, ptr }
%union.anon = type { i64 }
%struct.atexit_state = type { ptr, ptr }
%struct.anon.4 = type { i32, i32 }
%struct.PyListObject = type { %struct.PyVarObject, ptr, i64 }
%struct.PyVarObject = type { %struct._object, i64 }
%struct.PyTupleObject = type { %struct.PyVarObject, [1 x ptr] }

@.str.2 = private unnamed_addr constant [49 x i8] c"Exception ignored while copying atexit callbacks\00", align 1
@_Py_NoneStruct = external global %struct._object, align 8
@.str.3 = private unnamed_addr constant [40 x i8] c"Exception ignored in atexit callback %R\00", align 1

; Function Attrs: alwaysinline nounwind uwtable
define internal i32 @_Py_IsImmortal(ptr noundef %0) #5 {
  %2 = alloca ptr, align 8
  store ptr %0, ptr %2, align 8, !tbaa !34
  %3 = load ptr, ptr %2, align 8, !tbaa !34
  %4 = getelementptr inbounds nuw %struct._object, ptr %3, i32 0, i32 0
  %5 = getelementptr inbounds nuw %struct.anon.4, ptr %4, i32 0, i32 0
  %6 = load i32, ptr %5, align 8, !tbaa !37
  %7 = icmp slt i32 %6, 0
  %8 = zext i1 %7 to i32
  ret i32 %8
}

; Function Attrs: inlinehint nounwind uwtable
define internal i64 @Py_SIZE(ptr noundef %0) #2 {
  %2 = alloca ptr, align 8
  store ptr %0, ptr %2, align 8, !tbaa !34
  %3 = load ptr, ptr %2, align 8, !tbaa !34
  %4 = getelementptr inbounds nuw %struct.PyVarObject, ptr %3, i32 0, i32 1
  %5 = load i64, ptr %4, align 8, !tbaa !46
  ret i64 %5
}

; Function Attrs: nounwind uwtable
define internal void @atexit_cleanup(ptr noundef %0) #0 {
  %2 = alloca ptr, align 8
  store ptr %0, ptr %2, align 8, !tbaa !18
  %3 = load ptr, ptr %2, align 8, !tbaa !18
  %4 = getelementptr inbounds nuw %struct.atexit_state, ptr %3, i32 0, i32 1
  %5 = load ptr, ptr %4, align 8, !tbaa !25
  %6 = call i32 @PyList_Clear(ptr noundef %5)
  ret void
}

; Function Attrs: alwaysinline nounwind uwtable
define internal void @Py_DECREF(ptr noundef %0) #5 {
  %2 = alloca ptr, align 8
  store ptr %0, ptr %2, align 8, !tbaa !34
  %3 = load ptr, ptr %2, align 8, !tbaa !34
  %4 = call i32 @_Py_IsImmortal(ptr noundef %3)
  %5 = icmp ne i32 %4, 0
  br i1 %5, label %6, label %7

6:                                                ; preds = %1
  br label %16

7:                                                ; preds = %1
  %8 = load ptr, ptr %2, align 8, !tbaa !34
  %9 = getelementptr inbounds nuw %struct._object, ptr %8, i32 0, i32 0
  %10 = getelementptr inbounds nuw %struct.anon.4, ptr %9, i32 0, i32 0
  %11 = load i32, ptr %10, align 8, !tbaa !37
  %12 = add i32 %11, -1
  store i32 %12, ptr %10, align 8, !tbaa !37
  %13 = icmp eq i32 %12, 0
  br i1 %13, label %14, label %16

14:                                               ; preds = %7
  %15 = load ptr, ptr %2, align 8, !tbaa !34
  call void @_Py_Dealloc(ptr noundef %15)
  br label %16

16:                                               ; preds = %6, %14, %7
  ret void
}

; Function Attrs: inlinehint nounwind uwtable
define internal i64 @PyList_GET_SIZE(ptr noundef %0) #2 {
  %2 = alloca ptr, align 8
  %3 = alloca ptr, align 8
  store ptr %0, ptr %2, align 8, !tbaa !34
  call void @llvm.lifetime.start.p0(i64 8, ptr %3) #8
  %4 = load ptr, ptr %2, align 8, !tbaa !34
  store ptr %4, ptr %3, align 8, !tbaa !9
  %5 = load ptr, ptr %3, align 8, !tbaa !9
  %6 = call i64 @Py_SIZE(ptr noundef %5)
  call void @llvm.lifetime.end.p0(i64 8, ptr %3) #8
  ret i64 %6
}

; Function Attrs: nounwind uwtable
define internal void @atexit_callfuncs(ptr noundef %0) #0 {
  %2 = alloca ptr, align 8
  %3 = alloca ptr, align 8
  %4 = alloca i32, align 4
  %5 = alloca i64, align 8
  %6 = alloca ptr, align 8
  %7 = alloca ptr, align 8
  %8 = alloca ptr, align 8
  %9 = alloca ptr, align 8
  %10 = alloca ptr, align 8
  store ptr %0, ptr %2, align 8, !tbaa !18
  call void @llvm.lifetime.start.p0(i64 8, ptr %3) #8
  %11 = load ptr, ptr %2, align 8, !tbaa !18
  %12 = getelementptr inbounds nuw %struct.atexit_state, ptr %11, i32 0, i32 1
  %13 = load ptr, ptr %12, align 8, !tbaa !25
  %14 = load ptr, ptr %2, align 8, !tbaa !18
  %15 = getelementptr inbounds nuw %struct.atexit_state, ptr %14, i32 0, i32 1
  %16 = load ptr, ptr %15, align 8, !tbaa !25
  %17 = call i64 @PyList_GET_SIZE(ptr noundef %16)
  %18 = call ptr @PyList_GetSlice(ptr noundef %13, i64 noundef 0, i64 noundef %17)
  store ptr %18, ptr %3, align 8, !tbaa !34
  %19 = load ptr, ptr %3, align 8, !tbaa !34
  %20 = icmp eq ptr %19, null
  br i1 %20, label %21, label %22

21:                                               ; preds = %1
  call void (ptr, ...) @PyErr_FormatUnraisable(ptr noundef @.str.2)
  store i32 1, ptr %4, align 4
  br label %71

22:                                               ; preds = %1
  call void @llvm.lifetime.start.p0(i64 8, ptr %5) #8
  store i64 0, ptr %5, align 8, !tbaa !38
  br label %23

23:                                               ; preds = %65, %22
  %24 = load i64, ptr %5, align 8, !tbaa !38
  %25 = load ptr, ptr %3, align 8, !tbaa !34
  %26 = call i64 @PyList_GET_SIZE(ptr noundef %25)
  %27 = icmp slt i64 %24, %26
  br i1 %27, label %29, label %28

28:                                               ; preds = %23
  store i32 2, ptr %4, align 4
  call void @llvm.lifetime.end.p0(i64 8, ptr %5) #8
  br label %68

29:                                               ; preds = %23
  call void @llvm.lifetime.start.p0(i64 8, ptr %6) #8
  %30 = load ptr, ptr %3, align 8, !tbaa !34
  %31 = getelementptr inbounds nuw %struct.PyListObject, ptr %30, i32 0, i32 1
  %32 = load ptr, ptr %31, align 8, !tbaa !40
  %33 = load i64, ptr %5, align 8, !tbaa !38
  %34 = getelementptr ptr, ptr %32, i64 %33
  %35 = load ptr, ptr %34, align 8, !tbaa !34
  store ptr %35, ptr %6, align 8, !tbaa !34
  call void @llvm.lifetime.start.p0(i64 8, ptr %7) #8
  %36 = load ptr, ptr %6, align 8, !tbaa !34
  %37 = getelementptr inbounds nuw %struct.PyTupleObject, ptr %36, i32 0, i32 1
  %38 = getelementptr [1 x ptr], ptr %37, i64 0, i64 0
  %39 = load ptr, ptr %38, align 8, !tbaa !34
  store ptr %39, ptr %7, align 8, !tbaa !34
  call void @llvm.lifetime.start.p0(i64 8, ptr %8) #8
  %40 = load ptr, ptr %6, align 8, !tbaa !34
  %41 = getelementptr inbounds nuw %struct.PyTupleObject, ptr %40, i32 0, i32 1
  %42 = getelementptr [1 x ptr], ptr %41, i64 0, i64 1
  %43 = load ptr, ptr %42, align 8, !tbaa !34
  store ptr %43, ptr %8, align 8, !tbaa !34
  call void @llvm.lifetime.start.p0(i64 8, ptr %9) #8
  %44 = load ptr, ptr %6, align 8, !tbaa !34
  %45 = getelementptr inbounds nuw %struct.PyTupleObject, ptr %44, i32 0, i32 1
  %46 = getelementptr [1 x ptr], ptr %45, i64 0, i64 2
  %47 = load ptr, ptr %46, align 8, !tbaa !34
  store ptr %47, ptr %9, align 8, !tbaa !34
  call void @llvm.lifetime.start.p0(i64 8, ptr %10) #8
  %48 = load ptr, ptr %7, align 8, !tbaa !34
  %49 = load ptr, ptr %8, align 8, !tbaa !34
  %50 = load ptr, ptr %9, align 8, !tbaa !34
  %51 = icmp eq ptr %50, @_Py_NoneStruct
  br i1 %51, label %52, label %53

52:                                               ; preds = %29
  br label %55

53:                                               ; preds = %29
  %54 = load ptr, ptr %9, align 8, !tbaa !34
  br label %55

55:                                               ; preds = %53, %52
  %56 = phi ptr [ null, %52 ], [ %54, %53 ]
  %57 = call ptr @PyObject_Call(ptr noundef %48, ptr noundef %49, ptr noundef %56)
  store ptr %57, ptr %10, align 8, !tbaa !34
  %58 = load ptr, ptr %10, align 8, !tbaa !34
  %59 = icmp eq ptr %58, null
  br i1 %59, label %60, label %62

60:                                               ; preds = %55
  %61 = load ptr, ptr %7, align 8, !tbaa !34
  call void (ptr, ...) @PyErr_FormatUnraisable(ptr noundef @.str.3, ptr noundef %61)
  br label %64

62:                                               ; preds = %55
  %63 = load ptr, ptr %10, align 8, !tbaa !34
  call void @Py_DECREF(ptr noundef %63)
  br label %64

64:                                               ; preds = %62, %60
  call void @llvm.lifetime.end.p0(i64 8, ptr %10) #8
  call void @llvm.lifetime.end.p0(i64 8, ptr %9) #8
  call void @llvm.lifetime.end.p0(i64 8, ptr %8) #8
  call void @llvm.lifetime.end.p0(i64 8, ptr %7) #8
  call void @llvm.lifetime.end.p0(i64 8, ptr %6) #8
  br label %65

65:                                               ; preds = %64
  %66 = load i64, ptr %5, align 8, !tbaa !38
  %67 = add i64 %66, 1
  store i64 %67, ptr %5, align 8, !tbaa !38
  br label %23, !llvm.loop !45

68:                                               ; preds = %28
  %69 = load ptr, ptr %3, align 8, !tbaa !34
  call void @Py_DECREF(ptr noundef %69)
  %70 = load ptr, ptr %2, align 8, !tbaa !18
  call void @atexit_cleanup(ptr noundef %70)
  store i32 0, ptr %4, align 4
  br label %71

71:                                               ; preds = %68, %21
  call void @llvm.lifetime.end.p0(i64 8, ptr %3) #8
  %72 = load i32, ptr %4, align 4
  switch i32 %72, label %74 [
    i32 0, label %73
    i32 1, label %73
  ]

73:                                               ; preds = %71, %71
  ret void

74:                                               ; preds = %71
  unreachable
}