; Function Attrs: nounwind uwtable
define internal fastcc void @atexit_callfuncs(ptr noundef readonly captures(none) %0) unnamed_addr #0 {
  %2 = getelementptr inbounds nuw i8, ptr %0, i64 8
  %3 = load ptr, ptr %2, align 8, !tbaa !16
  %4 = getelementptr i8, ptr %3, i64 16
  %.val24 = load i64, ptr %4, align 8, !tbaa !29
  %5 = tail call ptr @PyList_GetSlice(ptr noundef %3, i64 noundef 0, i64 noundef %.val24) #6
  %6 = icmp eq ptr %5, null
  br i1 %6, label %10, label %.preheader

.preheader:                                       ; preds = %1
  %7 = getelementptr i8, ptr %5, i64 16
  %.val2526 = load i64, ptr %7, align 8, !tbaa !29
  %8 = icmp sgt i64 %.val2526, 0
  br i1 %8, label %.lr.ph, label %._crit_edge

.lr.ph:                                           ; preds = %.preheader
  %9 = getelementptr inbounds nuw i8, ptr %5, i64 24
  br label %17

10:                                               ; preds = %1
  tail call void (ptr, ...) @PyErr_FormatUnraisable(ptr noundef nonnull @.str.2) #6
  br label %40

._crit_edge:                                      ; preds = %Py_DECREF.exit22, %.preheader
  %11 = load i32, ptr %5, align 8, !tbaa !25
  %.not.i = icmp sgt i32 %11, -1
  br i1 %.not.i, label %12, label %Py_DECREF.exit

12:                                               ; preds = %._crit_edge
  %13 = add nsw i32 %11, -1
  store i32 %13, ptr %5, align 8, !tbaa !25
  %14 = icmp eq i32 %13, 0
  br i1 %14, label %15, label %Py_DECREF.exit

15:                                               ; preds = %12
  tail call void @_Py_Dealloc(ptr noundef nonnull %5) #6
  br label %Py_DECREF.exit

Py_DECREF.exit:                                   ; preds = %._crit_edge, %12, %15
  %.val = load ptr, ptr %2, align 8, !tbaa !16
  %16 = tail call i32 @PyList_Clear(ptr noundef %.val) #6
  br label %40

17:                                               ; preds = %.lr.ph, %Py_DECREF.exit22
  %.027 = phi i64 [ 0, %.lr.ph ], [ %38, %Py_DECREF.exit22 ]
  %18 = load ptr, ptr %9, align 8, !tbaa !34
  %19 = getelementptr ptr, ptr %18, i64 %.027
  %20 = load ptr, ptr %19, align 8, !tbaa !24
  %21 = getelementptr inbounds nuw i8, ptr %20, i64 24
  %22 = load ptr, ptr %21, align 8, !tbaa !24
  %23 = getelementptr i8, ptr %20, i64 32
  %24 = load ptr, ptr %23, align 8, !tbaa !24
  %25 = getelementptr i8, ptr %20, i64 40
  %26 = load ptr, ptr %25, align 8, !tbaa !24
  %27 = icmp eq ptr %26, @_Py_NoneStruct
  %28 = select i1 %27, ptr null, ptr %26
  %29 = tail call ptr @PyObject_Call(ptr noundef %22, ptr noundef %24, ptr noundef %28) #6
  %30 = icmp eq ptr %29, null
  br i1 %30, label %31, label %32

31:                                               ; preds = %17
  tail call void (ptr, ...) @PyErr_FormatUnraisable(ptr noundef nonnull @.str.3, ptr noundef %22) #6
  br label %Py_DECREF.exit22

32:                                               ; preds = %17
  %33 = load i32, ptr %29, align 8, !tbaa !25
  %.not.i21 = icmp sgt i32 %33, -1
  br i1 %.not.i21, label %34, label %Py_DECREF.exit22

34:                                               ; preds = %32
  %35 = add nsw i32 %33, -1
  store i32 %35, ptr %29, align 8, !tbaa !25
  %36 = icmp eq i32 %35, 0
  br i1 %36, label %37, label %Py_DECREF.exit22

37:                                               ; preds = %34
  tail call void @_Py_Dealloc(ptr noundef nonnull %29) #6
  br label %Py_DECREF.exit22

Py_DECREF.exit22:                                 ; preds = %37, %34, %32, %31
  %38 = add nuw nsw i64 %.027, 1
  %.val25 = load i64, ptr %7, align 8, !tbaa !29
  %39 = icmp slt i64 %38, %.val25
  br i1 %39, label %17, label %._crit_edge, !llvm.loop !37

40:                                               ; preds = %Py_DECREF.exit, %10
  ret void
}